; Function Attrs: mustprogress uwtable
define void @_ZN5Ipopt27WarmStartIterateInitializer18adapt_to_target_muERNS_6VectorES2_d(ptr nocapture nonnull readnone align 8 %0, ptr noundef nonnull align 8 dereferenceable(205) %1, ptr noundef nonnull align 8 dereferenceable(205) %2, double noundef %3) local_unnamed_addr #4 align 2 {
  %5 = tail call ptr @__dynamic_cast(ptr nonnull %1, ptr nonnull @_ZTIN5Ipopt6VectorE, ptr nonnull @_ZTIN5Ipopt11DenseVectorE, i64 0) #16
  %6 = tail call ptr @__dynamic_cast(ptr nonnull %2, ptr nonnull @_ZTIN5Ipopt6VectorE, ptr nonnull @_ZTIN5Ipopt11DenseVectorE, i64 0) #16
  %7 = getelementptr inbounds i8, ptr %5, i64 232
  %8 = load i8, ptr %7, align 8
  %9 = and i8 %8, 1
  %.not.i = icmp eq i8 %9, 0
  br i1 %.not.i, label %15, label %10

10:                                               ; preds = %4
  %11 = getelementptr inbounds i8, ptr %5, i64 233
  %12 = load i8, ptr %11, align 1
  %13 = and i8 %12, 1
  %.not1.i = icmp eq i8 %13, 0
  br i1 %.not1.i, label %15, label %14

14:                                               ; preds = %10
  tail call void @_ZN5Ipopt11DenseVector22set_values_from_scalarEv(ptr noundef nonnull align 8 dereferenceable(248) %5)
  br label %15

15:                                               ; preds = %14, %10, %4
  tail call void @_ZN5Ipopt12TaggedObject13ObjectChangedEv(ptr noundef nonnull align 8 dereferenceable(56) %5)
  store i8 1, ptr %7, align 8
  %16 = getelementptr inbounds i8, ptr %5, i64 233
  store i8 0, ptr %16, align 1
  %17 = getelementptr inbounds i8, ptr %5, i64 216
  %18 = load ptr, ptr %17, align 8
  %19 = icmp eq ptr %18, null
  br i1 %19, label %20, label %_ZN5Ipopt11DenseVector6ValuesEv.exit

20:                                               ; preds = %15
  %21 = getelementptr inbounds i8, ptr %5, i64 208
  %22 = load ptr, ptr %21, align 8
  %23 = getelementptr inbounds i8, ptr %22, i64 12
  %24 = load i32, ptr %23, align 4
  %25 = icmp sgt i32 %24, 0
  br i1 %25, label %26, label %_ZNK5Ipopt16DenseVectorSpace23AllocateInternalStorageEv.exit.i.i

26:                                               ; preds = %20
  %27 = zext nneg i32 %24 to i64
  %28 = shl nuw nsw i64 %27, 3
  %29 = tail call noalias noundef nonnull ptr @_Znam(i64 noundef %28) #17
  br label %_ZNK5Ipopt16DenseVectorSpace23AllocateInternalStorageEv.exit.i.i

_ZNK5Ipopt16DenseVectorSpace23AllocateInternalStorageEv.exit.i.i: ; preds = %26, %20
  %.0.i.i.i = phi ptr [ %29, %26 ], [ null, %20 ]
  store ptr %.0.i.i.i, ptr %17, align 8
  br label %_ZN5Ipopt11DenseVector6ValuesEv.exit

_ZN5Ipopt11DenseVector6ValuesEv.exit:             ; preds = %15, %_ZNK5Ipopt16DenseVectorSpace23AllocateInternalStorageEv.exit.i.i
  %30 = phi ptr [ %18, %15 ], [ %.0.i.i.i, %_ZNK5Ipopt16DenseVectorSpace23AllocateInternalStorageEv.exit.i.i ]
  %31 = getelementptr inbounds i8, ptr %6, i64 232
  %32 = load i8, ptr %31, align 8
  %33 = and i8 %32, 1
  %.not.i49 = icmp eq i8 %33, 0
  br i1 %.not.i49, label %39, label %34

34:                                               ; preds = %_ZN5Ipopt11DenseVector6ValuesEv.exit
  %35 = getelementptr inbounds i8, ptr %6, i64 233
  %36 = load i8, ptr %35, align 1
  %37 = and i8 %36, 1
  %.not1.i50 = icmp eq i8 %37, 0
  br i1 %.not1.i50, label %39, label %38

38:                                               ; preds = %34
  tail call void @_ZN5Ipopt11DenseVector22set_values_from_scalarEv(ptr noundef nonnull align 8 dereferenceable(248) %6)
  br label %39

39:                                               ; preds = %38, %34, %_ZN5Ipopt11DenseVector6ValuesEv.exit
  tail call void @_ZN5Ipopt12TaggedObject13ObjectChangedEv(ptr noundef nonnull align 8 dereferenceable(56) %6)
  store i8 1, ptr %31, align 8
  %40 = getelementptr inbounds i8, ptr %6, i64 233
  store i8 0, ptr %40, align 1
  %41 = getelementptr inbounds i8, ptr %6, i64 216
  %42 = load ptr, ptr %41, align 8
  %43 = icmp eq ptr %42, null
  br i1 %43, label %44, label %_ZN5Ipopt11DenseVector6ValuesEv.exit53

44:                                               ; preds = %39
  %45 = getelementptr inbounds i8, ptr %6, i64 208
  %46 = load ptr, ptr %45, align 8
  %47 = getelementptr inbounds i8, ptr %46, i64 12
  %48 = load i32, ptr %47, align 4
  %49 = icmp sgt i32 %48, 0
  br i1 %49, label %50, label %_ZNK5Ipopt16DenseVectorSpace23AllocateInternalStorageEv.exit.i.i51

50:                                               ; preds = %44
  %51 = zext nneg i32 %48 to i64
  %52 = shl nuw nsw i64 %51, 3
  %53 = tail call noalias noundef nonnull ptr @_Znam(i64 noundef %52) #17
  br label %_ZNK5Ipopt16DenseVectorSpace23AllocateInternalStorageEv.exit.i.i51

_ZNK5Ipopt16DenseVectorSpace23AllocateInternalStorageEv.exit.i.i51: ; preds = %50, %44
  %.0.i.i.i52 = phi ptr [ %53, %50 ], [ null, %44 ]
  store ptr %.0.i.i.i52, ptr %41, align 8
  br label %_ZN5Ipopt11DenseVector6ValuesEv.exit53

_ZN5Ipopt11DenseVector6ValuesEv.exit53:           ; preds = %39, %_ZNK5Ipopt16DenseVectorSpace23AllocateInternalStorageEv.exit.i.i51
  %54 = phi ptr [ %42, %39 ], [ %.0.i.i.i52, %_ZNK5Ipopt16DenseVectorSpace23AllocateInternalStorageEv.exit.i.i51 ]
  %55 = getelementptr inbounds i8, ptr %1, i64 56
  %56 = load ptr, ptr %55, align 8
  %57 = getelementptr inbounds i8, ptr %56, i64 12
  %58 = load i32, ptr %57, align 4
  %59 = icmp sgt i32 %58, 0
  br i1 %59, label %.lr.ph, label %._crit_edge

.lr.ph:                                           ; preds = %_ZN5Ipopt11DenseVector6ValuesEv.exit53, %78
  %indvars.iv = phi i64 [ %indvars.iv.next, %78 ], [ 0, %_ZN5Ipopt11DenseVector6ValuesEv.exit53 ]
  %60 = getelementptr inbounds double, ptr %30, i64 %indvars.iv
  %61 = load double, ptr %60, align 8
  %62 = getelementptr inbounds double, ptr %54, i64 %indvars.iv
  %63 = load double, ptr %62, align 8
  %64 = fmul double %63, 1.000000e+04
  %65 = fcmp ogt double %61, %64
  br i1 %65, label %66, label %70

66:                                               ; preds = %.lr.ph
  %67 = fdiv double %3, %61
  store double %67, ptr %62, align 8
  %68 = load double, ptr %60, align 8
  %69 = fcmp ogt double %67, %68
  br i1 %69, label %.sink.split, label %78

70:                                               ; preds = %.lr.ph
  %71 = fmul double %61, 1.000000e+04
  %72 = fcmp ogt double %63, %71
  br i1 %72, label %73, label %.sink.split

73:                                               ; preds = %70
  %74 = fdiv double %3, %63
  store double %74, ptr %60, align 8
  %75 = load double, ptr %62, align 8
  %76 = fcmp ogt double %74, %75
  br i1 %76, label %.sink.split, label %78

.sink.split:                                      ; preds = %70, %73, %66
  %77 = tail call double @sqrt(double noundef %3) #16
  store double %77, ptr %62, align 8
  store double %77, ptr %60, align 8
  br label %78

78:                                               ; preds = %.sink.split, %66, %73
  %indvars.iv.next = add nuw nsw i64 %indvars.iv, 1
  %79 = load ptr, ptr %55, align 8
  %80 = getelementptr inbounds i8, ptr %79, i64 12
  %81 = load i32, ptr %80, align 4
  %82 = sext i32 %81 to i64
  %83 = icmp slt i64 %indvars.iv.next, %82
  br i1 %83, label %.lr.ph, label %._crit_edge, !llvm.loop !542

._crit_edge:                                      ; preds = %78, %_ZN5Ipopt11DenseVector6ValuesEv.exit53
  ret void
}